target datalayout = "e-m:e-p270:32:32-p271:32:32-p272:64:64-i64:64-i128:128-f80:128-n8:16:32:64-S128"
target triple = "x86_64-unknown-linux-gnu"

%struct.QemuMutex = type { %union.pthread_mutex_t, i8 }
%union.pthread_mutex_t = type { %struct.__pthread_mutex_s }
%struct.__pthread_mutex_s = type { i32, i32, i32, i32, i32, i16, i16, %struct.__pthread_internal_list }
%struct.__pthread_internal_list = type { ptr, ptr }
%struct.Object = type { ptr, ptr, ptr, i32, ptr }
%struct.QTailQLink = type { ptr, ptr }
%struct.AddressSpace = type { %struct.rcu_head, ptr, ptr, ptr, i32, i32, ptr, %union.anon.18, %union.anon.19 }
%struct.rcu_head = type { ptr, ptr }
%union.anon.18 = type { %struct.QTailQLink }
%union.anon.19 = type { %struct.QTailQLink }
%struct.MemTxAttrs = type { i32 }
%struct.CPUState = type { %struct.DeviceState, ptr, i32, i32, ptr, i32, i8, i8, ptr, i8, i8, i8, i8, i8, i8, i8, i8, i32, i32, i32, i32, i64, i64, i64, [1 x %struct.__jmp_buf_tag], %struct.QemuMutex, %struct.anon.3, ptr, i32, ptr, ptr, ptr, ptr, i32, i32, %union.anon.4, %union.anon.5, %union.anon.6, ptr, ptr, i64, i32, ptr, ptr, ptr, i32, i64, i32, %struct.QemuLockCnt, [1 x i64], ptr, i32, i32, i32, i32, i32, ptr, i8, i8, i64, i8, i8, ptr, [8 x i8], [0 x i8], %struct.CPUNegativeOffsetState }
%struct.DeviceState = type { %struct.Object, ptr, ptr, i8, i8, i64, ptr, i32, i8, ptr, %struct.NamedGPIOListHead, %struct.NamedClockListHead, %struct.BusStateHead, i32, i32, i32, %struct.ResettableState, ptr, %struct.MemReentrancyGuard }
%struct.NamedGPIOListHead = type { ptr }
%struct.NamedClockListHead = type { ptr }
%struct.BusStateHead = type { ptr }
%struct.ResettableState = type { i32, i8, i8 }
%struct.MemReentrancyGuard = type { i8 }
%struct.__jmp_buf_tag = type { [8 x i64], i32, %struct.__sigset_t }
%struct.__sigset_t = type { [16 x i64] }
%struct.anon.3 = type { ptr, ptr }
%union.anon.4 = type { %struct.QTailQLink }
%union.anon.5 = type { %struct.QTailQLink }
%union.anon.6 = type { %struct.QTailQLink }
%struct.QemuLockCnt = type { i32 }
%struct.CPUNegativeOffsetState = type { %struct.CPUTLB, %union.IcountDecr, i8, [11 x i8] }
%struct.CPUTLB = type { %struct.CPUTLBCommon, [16 x %struct.CPUTLBDesc], [16 x %struct.CPUTLBDescFast] }
%struct.CPUTLBCommon = type { %struct.QemuSpin, i16, i64, i64, i64 }
%struct.QemuSpin = type { i32 }
%struct.CPUTLBDesc = type { i64, i64, i64, i64, i64, i64, [8 x %union.CPUTLBEntry], [8 x %struct.CPUTLBEntryFull], ptr }
%union.CPUTLBEntry = type { %struct.anon.7 }
%struct.anon.7 = type { i64, i64, i64, i64 }
%struct.CPUTLBEntryFull = type { i64, i64, %struct.MemTxAttrs, i8, i8, [3 x i8], %union.anon.8 }
%union.anon.8 = type { %struct.anon.9 }
%struct.anon.9 = type { i8, i8, i8 }
%struct.CPUTLBDescFast = type { i64, ptr }
%union.IcountDecr = type { i32 }
%struct.CPUAddressSpace = type { ptr, ptr, ptr, %struct.MemoryListener }
%struct.MemoryListener = type { ptr, ptr, ptr, ptr, ptr, ptr, ptr, ptr, ptr, ptr, ptr, ptr, ptr, ptr, ptr, ptr, ptr, i32, ptr, ptr, %union.anon.12, %union.anon.13 }
%union.anon.12 = type { %struct.QTailQLink }
%union.anon.13 = type { %struct.QTailQLink }
%struct.FlatView = type { %struct.rcu_head, i32, ptr, i32, i32, ptr, ptr }
%union.run_on_cpu_data = type { i64 }

@.str.1 = private unnamed_addr constant [25 x i8] c"../qemu/system/physmem.c\00", align 1
@tcg_allowed = external global i8, align 1
@.str.79 = private unnamed_addr constant [100 x i8] c"/home/dtcxzyw/WorkSpace/Projects/compilers/llvm-opt-benchmark/bench/qemu/qemu/include/exec/memory.h\00", align 1
@__func__.address_space_to_flatview = private unnamed_addr constant [26 x i8] c"address_space_to_flatview\00", align 1
@.str.82 = private unnamed_addr constant [14 x i8] c"tcg_enabled()\00", align 1
@__PRETTY_FUNCTION__.tcg_commit = private unnamed_addr constant [34 x i8] c"void tcg_commit(MemoryListener *)\00", align 1

; Function Attrs: nounwind sspstrong uwtable
define internal ptr @flatview_to_dispatch(ptr noundef %fv) #0 {
entry:
  %fv.addr = alloca ptr, align 8
  store ptr %fv, ptr %fv.addr, align 8
  %0 = load ptr, ptr %fv.addr, align 8
  %dispatch = getelementptr inbounds %struct.FlatView, ptr %0, i32 0, i32 5
  %1 = load ptr, ptr %dispatch, align 8
  ret ptr %1
}

; Function Attrs: nounwind sspstrong uwtable
define internal ptr @address_space_to_flatview(ptr noundef %as) #0 {
entry:
  %as.addr = alloca ptr, align 8
  %_val0 = alloca ptr, align 8
  %tmp = alloca ptr, align 8
  store ptr %as, ptr %as.addr, align 8
  br label %while.cond

while.cond:                                       ; preds = %do.end, %entry
  br i1 false, label %while.body, label %while.end

while.body:                                       ; preds = %while.cond
  br label %do.body

do.body:                                          ; preds = %while.body
  call void @g_assertion_message_expr(ptr noundef null, ptr noundef @.str.79, i32 noundef 1146, ptr noundef @__func__.address_space_to_flatview, ptr noundef null) #14
  unreachable

do.end:                                           ; No predecessors!
  br label %while.cond

while.end:                                        ; preds = %while.cond
  %0 = load ptr, ptr %as.addr, align 8
  %current_map = getelementptr inbounds %struct.AddressSpace, ptr %0, i32 0, i32 3
  %1 = load atomic i64, ptr %current_map monotonic, align 8
  store i64 %1, ptr %_val0, align 8
  call void asm sideeffect "", "~{memory},~{dirflag},~{fpsr},~{flags}"() #15, !srcloc !7
  %2 = load ptr, ptr %_val0, align 8
  store ptr %2, ptr %tmp, align 8
  %3 = load ptr, ptr %tmp, align 8
  ret ptr %3
}

; Function Attrs: nounwind sspstrong uwtable
define internal ptr @address_space_to_dispatch(ptr noundef %as) #0 {
entry:
  %as.addr = alloca ptr, align 8
  store ptr %as, ptr %as.addr, align 8
  %0 = load ptr, ptr %as.addr, align 8
  %call = call ptr @address_space_to_flatview(ptr noundef %0)
  %call1 = call ptr @flatview_to_dispatch(ptr noundef %call)
  ret ptr %call1
}

; Function Attrs: nounwind sspstrong uwtable
define internal void @tcg_commit_cpu(ptr noundef %cpu, i64 %data.coerce) #0 {
entry:
  %data = alloca %union.run_on_cpu_data, align 8
  %cpu.addr = alloca ptr, align 8
  %cpuas = alloca ptr, align 8
  %coerce.dive = getelementptr inbounds %union.run_on_cpu_data, ptr %data, i32 0, i32 0
  store i64 %data.coerce, ptr %coerce.dive, align 8
  store ptr %cpu, ptr %cpu.addr, align 8
  %0 = load ptr, ptr %data, align 8
  store ptr %0, ptr %cpuas, align 8
  %1 = load ptr, ptr %cpuas, align 8
  %as = getelementptr inbounds %struct.CPUAddressSpace, ptr %1, i32 0, i32 1
  %2 = load ptr, ptr %as, align 8
  %call = call ptr @address_space_to_dispatch(ptr noundef %2)
  %3 = load ptr, ptr %cpuas, align 8
  %memory_dispatch = getelementptr inbounds %struct.CPUAddressSpace, ptr %3, i32 0, i32 2
  store ptr %call, ptr %memory_dispatch, align 8
  %4 = load ptr, ptr %cpu.addr, align 8
  call void @tlb_flush(ptr noundef %4)
  ret void
}

; Function Attrs: nounwind sspstrong uwtable
define internal void @tcg_commit(ptr noundef %listener) #0 {
entry:
  %listener.addr = alloca ptr, align 8
  %cpuas = alloca ptr, align 8
  %cpu = alloca ptr, align 8
  %__mptr = alloca ptr, align 8
  %tmp = alloca ptr, align 8
  %.compoundliteral = alloca %union.run_on_cpu_data, align 8
  %.compoundliteral5 = alloca %union.run_on_cpu_data, align 8
  store ptr %listener, ptr %listener.addr, align 8
  %0 = load i8, ptr @tcg_allowed, align 1
  %tobool = trunc i8 %0 to i1
  br i1 %tobool, label %if.then, label %if.else

if.then:                                          ; preds = %entry
  br label %if.end

if.else:                                          ; preds = %entry
  call void @__assert_fail(ptr noundef @.str.82, ptr noundef @.str.1, i32 noundef 2528, ptr noundef @__PRETTY_FUNCTION__.tcg_commit) #13
  unreachable

if.end:                                           ; preds = %if.then
  %1 = load ptr, ptr %listener.addr, align 8
  store ptr %1, ptr %__mptr, align 8
  %2 = load ptr, ptr %__mptr, align 8
  %add.ptr = getelementptr i8, ptr %2, i64 -24
  store ptr %add.ptr, ptr %tmp, align 8
  %3 = load ptr, ptr %tmp, align 8
  store ptr %3, ptr %cpuas, align 8
  %4 = load ptr, ptr %cpuas, align 8
  %cpu1 = getelementptr inbounds %struct.CPUAddressSpace, ptr %4, i32 0, i32 0
  %5 = load ptr, ptr %cpu1, align 8
  store ptr %5, ptr %cpu, align 8
  %6 = load ptr, ptr %cpu, align 8
  %halt_cond = getelementptr inbounds %struct.CPUState, ptr %6, i32 0, i32 8
  %7 = load ptr, ptr %halt_cond, align 16
  %tobool2 = icmp ne ptr %7, null
  br i1 %tobool2, label %if.then3, label %if.else4

if.then3:                                         ; preds = %if.end
  %8 = load ptr, ptr %cpu, align 8
  %9 = load ptr, ptr %cpuas, align 8
  store ptr %9, ptr %.compoundliteral, align 8
  %coerce.dive = getelementptr inbounds %union.run_on_cpu_data, ptr %.compoundliteral, i32 0, i32 0
  %10 = load i64, ptr %coerce.dive, align 8
  call void @async_run_on_cpu(ptr noundef %8, ptr noundef @tcg_commit_cpu, i64 %10)
  br label %if.end7

if.else4:                                         ; preds = %if.end
  %11 = load ptr, ptr %cpu, align 8
  %12 = load ptr, ptr %cpuas, align 8
  store ptr %12, ptr %.compoundliteral5, align 8
  %coerce.dive6 = getelementptr inbounds %union.run_on_cpu_data, ptr %.compoundliteral5, i32 0, i32 0
  %13 = load i64, ptr %coerce.dive6, align 8
  call void @tcg_commit_cpu(ptr noundef %11, i64 %13)
  br label %if.end7

if.end7:                                          ; preds = %if.else4, %if.then3
  ret void
}