; Function Attrs: nounwind sspstrong uwtable
define internal void @tcg_commit(ptr noundef %listener) #0 {
entry:
  %0 = load i8, ptr @tcg_allowed, align 1
  %tobool = trunc i8 %0 to i1
  br i1 %tobool, label %if.end, label %if.else

if.else:                                          ; preds = %entry
  tail call void @__assert_fail(ptr noundef nonnull @.str.82, ptr noundef nonnull @.str.1, i32 noundef 2528, ptr noundef nonnull @__PRETTY_FUNCTION__.tcg_commit) #27
  unreachable

if.end:                                           ; preds = %entry
  %add.ptr = getelementptr i8, ptr %listener, i64 -24
  %1 = load ptr, ptr %add.ptr, align 8
  %halt_cond = getelementptr inbounds nuw i8, ptr %1, i64 192
  %2 = load ptr, ptr %halt_cond, align 16
  %tobool2.not = icmp eq ptr %2, null
  br i1 %tobool2.not, label %if.else4, label %if.then3

if.then3:                                         ; preds = %if.end
  %3 = ptrtoint ptr %add.ptr to i64
  tail call void @async_run_on_cpu(ptr noundef nonnull %1, ptr noundef nonnull @tcg_commit_cpu, i64 %3) #28
  br label %if.end7

if.else4:                                         ; preds = %if.end
  %as.i = getelementptr i8, ptr %listener, i64 -16
  %4 = load ptr, ptr %as.i, align 8
  %current_map.i.i.i = getelementptr inbounds nuw i8, ptr %4, i64 32
  %5 = load atomic i64, ptr %current_map.i.i.i monotonic, align 8
  %6 = inttoptr i64 %5 to ptr
  tail call void asm sideeffect "", "~{memory},~{dirflag},~{fpsr},~{flags}"() #28, !srcloc !7
  %7 = getelementptr i8, ptr %6, i64 40
  %call.val.i.i = load ptr, ptr %7, align 8
  %memory_dispatch.i = getelementptr i8, ptr %listener, i64 -8
  store ptr %call.val.i.i, ptr %memory_dispatch.i, align 8
  tail call void @tlb_flush(ptr noundef nonnull %1) #28
  br label %if.end7

if.end7:                                          ; preds = %if.else4, %if.then3
  ret void
}